target datalayout = "e-m:e-p270:32:32-p271:32:32-p272:64:64-i64:64-i128:128-f80:128-n8:16:32:64-S128"
target triple = "x86_64-pc-linux-gnu"

%"class.std::__cxx11::basic_string" = type { %"struct.std::__cxx11::basic_string<char>::_Alloc_hider", i64, %union.anon }
%"struct.std::__cxx11::basic_string<char>::_Alloc_hider" = type { ptr }
%union.anon = type { i64, [8 x i8] }
%"struct.Imf_3_4::MultiPartOutputFile::Data" = type { %"struct.Imf_3_4::OutputStreamMutex", %"class.std::vector", i8, i32, %"class.std::map", %"class.std::vector.6" }
%"struct.Imf_3_4::OutputStreamMutex" = type { %"class.std::mutex", ptr, i64 }
%"class.std::mutex" = type { %"class.std::__mutex_base" }
%"class.std::__mutex_base" = type { %union.pthread_mutex_t }
%union.pthread_mutex_t = type { %struct.__pthread_mutex_s }
%struct.__pthread_mutex_s = type { i32, i32, i32, i32, i32, i16, i16, %struct.__pthread_internal_list }
%struct.__pthread_internal_list = type { ptr, ptr }
%"class.std::vector" = type { %"struct.std::_Vector_base" }
%"struct.std::_Vector_base" = type { %"struct.std::_Vector_base<Imf_3_4::OutputPartData *, std::allocator<Imf_3_4::OutputPartData *>>::_Vector_impl" }
%"struct.std::_Vector_base<Imf_3_4::OutputPartData *, std::allocator<Imf_3_4::OutputPartData *>>::_Vector_impl" = type { %"struct.std::_Vector_base<Imf_3_4::OutputPartData *, std::allocator<Imf_3_4::OutputPartData *>>::_Vector_impl_data" }
%"struct.std::_Vector_base<Imf_3_4::OutputPartData *, std::allocator<Imf_3_4::OutputPartData *>>::_Vector_impl_data" = type { ptr, ptr, ptr }
%"class.std::map" = type { %"class.std::_Rb_tree" }
%"class.std::_Rb_tree" = type { %"struct.std::_Rb_tree<int, std::pair<const int, Imf_3_4::GenericOutputFile *>, std::_Select1st<std::pair<const int, Imf_3_4::GenericOutputFile *>>, std::less<int>>::_Rb_tree_impl" }
%"struct.std::_Rb_tree<int, std::pair<const int, Imf_3_4::GenericOutputFile *>, std::_Select1st<std::pair<const int, Imf_3_4::GenericOutputFile *>>, std::less<int>>::_Rb_tree_impl" = type { [8 x i8], %"struct.std::_Rb_tree_header" }
%"struct.std::_Rb_tree_header" = type { %"struct.std::_Rb_tree_node_base", i64 }
%"struct.std::_Rb_tree_node_base" = type { i32, ptr, ptr, ptr }
%"class.std::vector.6" = type { %"struct.std::_Vector_base.7" }
%"struct.std::_Vector_base.7" = type { %"struct.std::_Vector_base<Imf_3_4::Header, std::allocator<Imf_3_4::Header>>::_Vector_impl" }
%"struct.std::_Vector_base<Imf_3_4::Header, std::allocator<Imf_3_4::Header>>::_Vector_impl" = type { %"struct.std::_Vector_base<Imf_3_4::Header, std::allocator<Imf_3_4::Header>>::_Vector_impl_data" }
%"struct.std::_Vector_base<Imf_3_4::Header, std::allocator<Imf_3_4::Header>>::_Vector_impl_data" = type { ptr, ptr, ptr }
%"class.Imf_3_4::Header" = type <{ %"class.std::map.13", i8, [7 x i8] }>
%"class.std::map.13" = type { %"class.std::_Rb_tree.14" }
%"class.std::_Rb_tree.14" = type { %"struct.std::_Rb_tree<Imf_3_4::Name, std::pair<const Imf_3_4::Name, Imf_3_4::Attribute *>, std::_Select1st<std::pair<const Imf_3_4::Name, Imf_3_4::Attribute *>>, std::less<Imf_3_4::Name>>::_Rb_tree_impl" }
%"struct.std::_Rb_tree<Imf_3_4::Name, std::pair<const Imf_3_4::Name, Imf_3_4::Attribute *>, std::_Select1st<std::pair<const Imf_3_4::Name, Imf_3_4::Attribute *>>, std::less<Imf_3_4::Name>>::_Rb_tree_impl" = type { [8 x i8], %"struct.std::_Rb_tree_header" }
%"struct.Imf_3_4::OutputPartData" = type { %"class.Imf_3_4::Header", i64, i64, i32, i32, i8, ptr }

@_ZN7Imf_3_4L10TILEDIMAGEB5cxx11E = internal global %"class.std::__cxx11::basic_string" zeroinitializer, align 8
@.str.25 = private unnamed_addr constant [1 x i8] zeroinitializer, align 1

; Function Attrs: mustprogress nounwind uwtable
define available_externally noundef ptr @_ZNKSt7__cxx1112basic_stringIcSt11char_traitsIcESaIcEE7_M_dataEv(ptr noundef nonnull align 8 dereferenceable(32) %0) #5 align 2 {
  %2 = alloca ptr, align 8
  store ptr %0, ptr %2, align 8, !tbaa !8
  %3 = load ptr, ptr %2, align 8
  %4 = getelementptr inbounds nuw %"class.std::__cxx11::basic_string", ptr %3, i32 0, i32 0
  %5 = getelementptr inbounds nuw %"struct.std::__cxx11::basic_string<char>::_Alloc_hider", ptr %4, i32 0, i32 0
  %6 = load ptr, ptr %5, align 8, !tbaa !257
  ret ptr %6
}

; Function Attrs: inlinehint mustprogress uwtable
define linkonce_odr hidden void @_ZN7Imf_3_48StreamIO10writeCharsERNS_7OStreamEPKci(ptr noundef nonnull align 8 dereferenceable(40) %0, ptr noundef %1, i32 noundef %2) #7 comdat align 2 {
  %4 = alloca ptr, align 8
  %5 = alloca ptr, align 8
  %6 = alloca i32, align 4
  store ptr %0, ptr %4, align 8, !tbaa !139
  store ptr %1, ptr %5, align 8, !tbaa !10
  store i32 %2, ptr %6, align 4, !tbaa !14
  %7 = load ptr, ptr %4, align 8, !tbaa !139
  %8 = load ptr, ptr %5, align 8, !tbaa !10
  %9 = load i32, ptr %6, align 4, !tbaa !14
  %10 = load ptr, ptr %7, align 8, !tbaa !34
  %11 = getelementptr inbounds ptr, ptr %10, i64 2
  %12 = load ptr, ptr %11, align 8
  call void %12(ptr noundef nonnull align 8 dereferenceable(40) %7, ptr noundef %8, i32 noundef %9)
  ret void
}

; Function Attrs: mustprogress nounwind uwtable
define linkonce_odr hidden noundef i32 @_ZNSt11char_traitsIcE7compareEPKcS2_m(ptr noundef %0, ptr noundef %1, i64 noundef %2) #5 comdat align 2 {
  %4 = alloca i32, align 4
  %5 = alloca ptr, align 8
  %6 = alloca ptr, align 8
  %7 = alloca i64, align 8
  store ptr %0, ptr %5, align 8, !tbaa !10
  store ptr %1, ptr %6, align 8, !tbaa !10
  store i64 %2, ptr %7, align 8, !tbaa !38
  %8 = load i64, ptr %7, align 8, !tbaa !38
  %9 = icmp eq i64 %8, 0
  br i1 %9, label %10, label %11

10:                                               ; preds = %3
  store i32 0, ptr %4, align 4
  br label %16

11:                                               ; preds = %3
  %12 = load ptr, ptr %5, align 8, !tbaa !10
  %13 = load ptr, ptr %6, align 8, !tbaa !10
  %14 = load i64, ptr %7, align 8, !tbaa !38
  %15 = call i32 @memcmp(ptr noundef %12, ptr noundef %13, i64 noundef %14) #3
  store i32 %15, ptr %4, align 4
  br label %16

16:                                               ; preds = %11, %10
  %17 = load i32, ptr %4, align 4
  ret i32 %17
}

; Function Attrs: mustprogress nounwind uwtable
define available_externally noundef ptr @_ZNKSt7__cxx1112basic_stringIcSt11char_traitsIcESaIcEE4dataEv(ptr noundef nonnull align 8 dereferenceable(32) %0) #5 align 2 {
  %2 = alloca ptr, align 8
  store ptr %0, ptr %2, align 8, !tbaa !8
  %3 = load ptr, ptr %2, align 8
  %4 = call noundef ptr @_ZNKSt7__cxx1112basic_stringIcSt11char_traitsIcESaIcEE7_M_dataEv(ptr noundef nonnull align 8 dereferenceable(32) %3)
  ret ptr %4
}

; Function Attrs: mustprogress nounwind uwtable
define available_externally noundef i64 @_ZNKSt7__cxx1112basic_stringIcSt11char_traitsIcESaIcEE4sizeEv(ptr noundef nonnull align 8 dereferenceable(32) %0) #5 align 2 {
  %2 = alloca ptr, align 8
  store ptr %0, ptr %2, align 8, !tbaa !8
  %3 = load ptr, ptr %2, align 8
  %4 = getelementptr inbounds nuw %"class.std::__cxx11::basic_string", ptr %3, i32 0, i32 1
  %5 = load i64, ptr %4, align 8, !tbaa !254
  ret i64 %5
}

; Function Attrs: mustprogress uwtable
define linkonce_odr hidden void @_ZN7Imf_3_43Xdr5writeINS_8StreamIOENS_7OStreamEEEvRT0_PKc(ptr noundef nonnull align 8 dereferenceable(40) %0, ptr noundef %1) #6 comdat {
  %3 = alloca ptr, align 8
  %4 = alloca ptr, align 8
  store ptr %0, ptr %3, align 8, !tbaa !139
  store ptr %1, ptr %4, align 8, !tbaa !10
  br label %5

5:                                                ; preds = %9, %2
  %6 = load ptr, ptr %4, align 8, !tbaa !10
  %7 = load i8, ptr %6, align 1, !tbaa !157
  %8 = icmp ne i8 %7, 0
  br i1 %8, label %9, label %14

9:                                                ; preds = %5
  %10 = load ptr, ptr %3, align 8, !tbaa !139
  %11 = load ptr, ptr %4, align 8, !tbaa !10
  call void @_ZN7Imf_3_48StreamIO10writeCharsERNS_7OStreamEPKci(ptr noundef nonnull align 8 dereferenceable(40) %10, ptr noundef %11, i32 noundef 1)
  %12 = load ptr, ptr %4, align 8, !tbaa !10
  %13 = getelementptr inbounds nuw i8, ptr %12, i32 1
  store ptr %13, ptr %4, align 8, !tbaa !10
  br label %5, !llvm.loop !158

14:                                               ; preds = %5
  %15 = load ptr, ptr %3, align 8, !tbaa !139
  %16 = load ptr, ptr %4, align 8, !tbaa !10
  call void @_ZN7Imf_3_48StreamIO10writeCharsERNS_7OStreamEPKci(ptr noundef nonnull align 8 dereferenceable(40) %15, ptr noundef %16, i32 noundef 1)
  ret void
}

; Function Attrs: mustprogress nounwind uwtable
define linkonce_odr hidden noundef nonnull align 8 dereferenceable(8) ptr @_ZNSt6vectorIPN7Imf_3_414OutputPartDataESaIS2_EEixEm(ptr noundef nonnull align 8 dereferenceable(24) %0, i64 noundef %1) #5 comdat align 2 {
  %3 = alloca ptr, align 8
  %4 = alloca i64, align 8
  store ptr %0, ptr %3, align 8, !tbaa !55
  store i64 %1, ptr %4, align 8, !tbaa !38
  %5 = load ptr, ptr %3, align 8
  %6 = getelementptr inbounds nuw %"struct.std::_Vector_base", ptr %5, i32 0, i32 0
  %7 = getelementptr inbounds nuw %"struct.std::_Vector_base<Imf_3_4::OutputPartData *, std::allocator<Imf_3_4::OutputPartData *>>::_Vector_impl_data", ptr %6, i32 0, i32 0
  %8 = load ptr, ptr %7, align 8, !tbaa !57
  %9 = load i64, ptr %4, align 8, !tbaa !38
  %10 = getelementptr inbounds nuw ptr, ptr %8, i64 %9
  ret ptr %10
}

; Function Attrs: inlinehint mustprogress nounwind uwtable
define linkonce_odr noundef zeroext i1 @_ZSteqIcEN9__gnu_cxx11__enable_ifIXsr9__is_charIT_EE7__valueEbE6__typeERKNSt7__cxx1112basic_stringIS2_St11char_traitsIS2_ESaIS2_EEESC_(ptr noundef nonnull align 8 dereferenceable(32) %0, ptr noundef nonnull align 8 dereferenceable(32) %1) #12 comdat {
  %3 = alloca ptr, align 8
  %4 = alloca ptr, align 8
  store ptr %0, ptr %3, align 8, !tbaa !8
  store ptr %1, ptr %4, align 8, !tbaa !8
  %5 = load ptr, ptr %3, align 8, !tbaa !8
  %6 = call noundef i64 @_ZNKSt7__cxx1112basic_stringIcSt11char_traitsIcESaIcEE4sizeEv(ptr noundef nonnull align 8 dereferenceable(32) %5) #3
  %7 = load ptr, ptr %4, align 8, !tbaa !8
  %8 = call noundef i64 @_ZNKSt7__cxx1112basic_stringIcSt11char_traitsIcESaIcEE4sizeEv(ptr noundef nonnull align 8 dereferenceable(32) %7) #3
  %9 = icmp eq i64 %6, %8
  br i1 %9, label %10, label %20

10:                                               ; preds = %2
  %11 = load ptr, ptr %3, align 8, !tbaa !8
  %12 = call noundef ptr @_ZNKSt7__cxx1112basic_stringIcSt11char_traitsIcESaIcEE4dataEv(ptr noundef nonnull align 8 dereferenceable(32) %11) #3
  %13 = load ptr, ptr %4, align 8, !tbaa !8
  %14 = call noundef ptr @_ZNKSt7__cxx1112basic_stringIcSt11char_traitsIcESaIcEE4dataEv(ptr noundef nonnull align 8 dereferenceable(32) %13) #3
  %15 = load ptr, ptr %3, align 8, !tbaa !8
  %16 = call noundef i64 @_ZNKSt7__cxx1112basic_stringIcSt11char_traitsIcESaIcEE4sizeEv(ptr noundef nonnull align 8 dereferenceable(32) %15) #3
  %17 = call noundef i32 @_ZNSt11char_traitsIcE7compareEPKcS2_m(ptr noundef %12, ptr noundef %14, i64 noundef %16)
  %18 = icmp ne i32 %17, 0
  %19 = xor i1 %18, true
  br label %20

20:                                               ; preds = %10, %2
  %21 = phi i1 [ false, %2 ], [ %19, %10 ]
  ret i1 %21
}

; Function Attrs: mustprogress nounwind uwtable
define linkonce_odr hidden noundef nonnull align 8 dereferenceable(49) ptr @_ZNKSt6vectorIN7Imf_3_46HeaderESaIS1_EEixEm(ptr noundef nonnull align 8 dereferenceable(24) %0, i64 noundef %1) #5 comdat align 2 {
  %3 = alloca ptr, align 8
  %4 = alloca i64, align 8
  store ptr %0, ptr %3, align 8, !tbaa !26
  store i64 %1, ptr %4, align 8, !tbaa !38
  %5 = load ptr, ptr %3, align 8
  %6 = getelementptr inbounds nuw %"struct.std::_Vector_base.7", ptr %5, i32 0, i32 0
  %7 = getelementptr inbounds nuw %"struct.std::_Vector_base<Imf_3_4::Header, std::allocator<Imf_3_4::Header>>::_Vector_impl_data", ptr %6, i32 0, i32 0
  %8 = load ptr, ptr %7, align 8, !tbaa !31
  %9 = load i64, ptr %4, align 8, !tbaa !38
  %10 = getelementptr inbounds nuw %"class.Imf_3_4::Header", ptr %8, i64 %9
  ret ptr %10
}

; Function Attrs: mustprogress nounwind uwtable
define linkonce_odr hidden noundef i64 @_ZNKSt6vectorIN7Imf_3_46HeaderESaIS1_EE4sizeEv(ptr noundef nonnull align 8 dereferenceable(24) %0) #5 comdat align 2 {
  %2 = alloca ptr, align 8
  store ptr %0, ptr %2, align 8, !tbaa !26
  %3 = load ptr, ptr %2, align 8
  %4 = getelementptr inbounds nuw %"struct.std::_Vector_base.7", ptr %3, i32 0, i32 0
  %5 = getelementptr inbounds nuw %"struct.std::_Vector_base<Imf_3_4::Header, std::allocator<Imf_3_4::Header>>::_Vector_impl_data", ptr %4, i32 0, i32 1
  %6 = load ptr, ptr %5, align 8, !tbaa !28
  %7 = getelementptr inbounds nuw %"struct.std::_Vector_base.7", ptr %3, i32 0, i32 0
  %8 = getelementptr inbounds nuw %"struct.std::_Vector_base<Imf_3_4::Header, std::allocator<Imf_3_4::Header>>::_Vector_impl_data", ptr %7, i32 0, i32 0
  %9 = load ptr, ptr %8, align 8, !tbaa !31
  %10 = ptrtoint ptr %6 to i64
  %11 = ptrtoint ptr %9 to i64
  %12 = sub i64 %10, %11
  %13 = sdiv exact i64 %12, 56
  ret i64 %13
}

; Function Attrs: mustprogress uwtable
define hidden void @_ZN7Imf_3_419MultiPartOutputFile4Data18writeHeadersToFileERKSt6vectorINS_6HeaderESaIS3_EE(ptr noundef nonnull align 8 dereferenceable(160) %0, ptr noundef nonnull align 8 dereferenceable(24) %1) #6 align 2 {
  %3 = alloca ptr, align 8
  %4 = alloca ptr, align 8
  %5 = alloca i64, align 8
  store ptr %0, ptr %3, align 8, !tbaa !75
  store ptr %1, ptr %4, align 8, !tbaa !26
  %6 = load ptr, ptr %3, align 8
  call void @llvm.lifetime.start.p0(i64 8, ptr %5) #3
  store i64 0, ptr %5, align 8, !tbaa !38
  br label %7

7:                                                ; preds = %44, %2
  %8 = load i64, ptr %5, align 8, !tbaa !38
  %9 = load ptr, ptr %4, align 8, !tbaa !26
  %10 = call noundef i64 @_ZNKSt6vectorIN7Imf_3_46HeaderESaIS1_EE4sizeEv(ptr noundef nonnull align 8 dereferenceable(24) %9) #3
  %11 = icmp ult i64 %8, %10
  br i1 %11, label %13, label %12

12:                                               ; preds = %7
  call void @llvm.lifetime.end.p0(i64 8, ptr %5) #3
  br label %47

13:                                               ; preds = %7
  %14 = load ptr, ptr %4, align 8, !tbaa !26
  %15 = load i64, ptr %5, align 8, !tbaa !38
  %16 = call noundef nonnull align 8 dereferenceable(49) ptr @_ZNKSt6vectorIN7Imf_3_46HeaderESaIS1_EEixEm(ptr noundef nonnull align 8 dereferenceable(24) %14, i64 noundef %15) #3
  %17 = call noundef nonnull align 8 dereferenceable(32) ptr @_ZNK7Imf_3_46Header4typeB5cxx11Ev(ptr noundef nonnull align 8 dereferenceable(49) %16)
  %18 = call noundef zeroext i1 @_ZSteqIcEN9__gnu_cxx11__enable_ifIXsr9__is_charIT_EE7__valueEbE6__typeERKNSt7__cxx1112basic_stringIS2_St11char_traitsIS2_ESaIS2_EEESC_(ptr noundef nonnull align 8 dereferenceable(32) %17, ptr noundef nonnull align 8 dereferenceable(32) @_ZN7Imf_3_4L10TILEDIMAGEB5cxx11E) #3
  br i1 %18, label %19, label %31

19:                                               ; preds = %13
  %20 = load ptr, ptr %4, align 8, !tbaa !26
  %21 = load i64, ptr %5, align 8, !tbaa !38
  %22 = call noundef nonnull align 8 dereferenceable(49) ptr @_ZNKSt6vectorIN7Imf_3_46HeaderESaIS1_EEixEm(ptr noundef nonnull align 8 dereferenceable(24) %20, i64 noundef %21) #3
  %23 = getelementptr inbounds nuw %"struct.Imf_3_4::OutputStreamMutex", ptr %6, i32 0, i32 1
  %24 = load ptr, ptr %23, align 8, !tbaa !99
  %25 = call noundef i64 @_ZNK7Imf_3_46Header7writeToERNS_7OStreamEb(ptr noundef nonnull align 8 dereferenceable(49) %22, ptr noundef nonnull align 8 dereferenceable(40) %24, i1 noundef zeroext true)
  %26 = getelementptr inbounds nuw %"struct.Imf_3_4::MultiPartOutputFile::Data", ptr %6, i32 0, i32 1
  %27 = load i64, ptr %5, align 8, !tbaa !38
  %28 = call noundef nonnull align 8 dereferenceable(8) ptr @_ZNSt6vectorIPN7Imf_3_414OutputPartDataESaIS2_EEixEm(ptr noundef nonnull align 8 dereferenceable(24) %26, i64 noundef %27) #3
  %29 = load ptr, ptr %28, align 8, !tbaa !20
  %30 = getelementptr inbounds nuw %"struct.Imf_3_4::OutputPartData", ptr %29, i32 0, i32 2
  store i64 %25, ptr %30, align 8, !tbaa !125
  br label %43

31:                                               ; preds = %13
  %32 = load ptr, ptr %4, align 8, !tbaa !26
  %33 = load i64, ptr %5, align 8, !tbaa !38
  %34 = call noundef nonnull align 8 dereferenceable(49) ptr @_ZNKSt6vectorIN7Imf_3_46HeaderESaIS1_EEixEm(ptr noundef nonnull align 8 dereferenceable(24) %32, i64 noundef %33) #3
  %35 = getelementptr inbounds nuw %"struct.Imf_3_4::OutputStreamMutex", ptr %6, i32 0, i32 1
  %36 = load ptr, ptr %35, align 8, !tbaa !99
  %37 = call noundef i64 @_ZNK7Imf_3_46Header7writeToERNS_7OStreamEb(ptr noundef nonnull align 8 dereferenceable(49) %34, ptr noundef nonnull align 8 dereferenceable(40) %36, i1 noundef zeroext false)
  %38 = getelementptr inbounds nuw %"struct.Imf_3_4::MultiPartOutputFile::Data", ptr %6, i32 0, i32 1
  %39 = load i64, ptr %5, align 8, !tbaa !38
  %40 = call noundef nonnull align 8 dereferenceable(8) ptr @_ZNSt6vectorIPN7Imf_3_414OutputPartDataESaIS2_EEixEm(ptr noundef nonnull align 8 dereferenceable(24) %38, i64 noundef %39) #3
  %41 = load ptr, ptr %40, align 8, !tbaa !20
  %42 = getelementptr inbounds nuw %"struct.Imf_3_4::OutputPartData", ptr %41, i32 0, i32 2
  store i64 %37, ptr %42, align 8, !tbaa !125
  br label %43

43:                                               ; preds = %31, %19
  br label %44

44:                                               ; preds = %43
  %45 = load i64, ptr %5, align 8, !tbaa !38
  %46 = add i64 %45, 1
  store i64 %46, ptr %5, align 8, !tbaa !38
  br label %7, !llvm.loop !134

47:                                               ; preds = %12
  %48 = load ptr, ptr %4, align 8, !tbaa !26
  %49 = call noundef i64 @_ZNKSt6vectorIN7Imf_3_46HeaderESaIS1_EE4sizeEv(ptr noundef nonnull align 8 dereferenceable(24) %48) #3
  %50 = icmp ne i64 %49, 1
  br i1 %50, label %51, label %54

51:                                               ; preds = %47
  %52 = getelementptr inbounds nuw %"struct.Imf_3_4::OutputStreamMutex", ptr %6, i32 0, i32 1
  %53 = load ptr, ptr %52, align 8, !tbaa !99
  call void @_ZN7Imf_3_43Xdr5writeINS_8StreamIOENS_7OStreamEEEvRT0_PKc(ptr noundef nonnull align 8 dereferenceable(40) %53, ptr noundef @.str.25)
  br label %54

54:                                               ; preds = %51, %47
  ret void
}