; Function Attrs: mustprogress uwtable
define hidden void @_ZN7Imf_3_419MultiPartOutputFile4Data18writeHeadersToFileERKSt6vectorINS_6HeaderESaIS3_EE(ptr noundef nonnull readonly align 8 captures(none) dereferenceable(160) %0, ptr noundef nonnull readonly align 8 captures(none) dereferenceable(24) %1) local_unnamed_addr #4 align 2 {
  %3 = getelementptr inbounds nuw i8, ptr %1, i64 8
  %4 = load ptr, ptr %3, align 8, !tbaa !21
  %5 = load ptr, ptr %1, align 8, !tbaa !24
  %.not14 = icmp eq ptr %4, %5
  br i1 %.not14, label %._crit_edge.thread, label %.lr.ph

.lr.ph:                                           ; preds = %2
  %6 = getelementptr inbounds nuw i8, ptr %0, i64 40
  %7 = getelementptr inbounds nuw i8, ptr %0, i64 56
  br label %9

._crit_edge:                                      ; preds = %_ZSteqIcEN9__gnu_cxx11__enable_ifIXsr9__is_charIT_EE7__valueEbE6__typeERKNSt7__cxx1112basic_stringIS2_St11char_traitsIS2_ESaIS2_EEESC_.exit.thread
  %8 = icmp eq i64 %35, 56
  br i1 %8, label %43, label %._crit_edge.thread

9:                                                ; preds = %.lr.ph, %_ZSteqIcEN9__gnu_cxx11__enable_ifIXsr9__is_charIT_EE7__valueEbE6__typeERKNSt7__cxx1112basic_stringIS2_St11char_traitsIS2_ESaIS2_EEESC_.exit.thread
  %10 = phi ptr [ %5, %.lr.ph ], [ %32, %_ZSteqIcEN9__gnu_cxx11__enable_ifIXsr9__is_charIT_EE7__valueEbE6__typeERKNSt7__cxx1112basic_stringIS2_St11char_traitsIS2_ESaIS2_EEESC_.exit.thread ]
  %.013 = phi i64 [ 0, %.lr.ph ], [ %30, %_ZSteqIcEN9__gnu_cxx11__enable_ifIXsr9__is_charIT_EE7__valueEbE6__typeERKNSt7__cxx1112basic_stringIS2_St11char_traitsIS2_ESaIS2_EEESC_.exit.thread ]
  %11 = getelementptr inbounds nuw %"class.Imf_3_4::Header", ptr %10, i64 %.013
  %12 = tail call noundef nonnull align 8 dereferenceable(32) ptr @_ZNK7Imf_3_46Header4typeB5cxx11Ev(ptr noundef nonnull align 8 dereferenceable(49) %11)
  %13 = getelementptr inbounds nuw i8, ptr %12, i64 8
  %14 = load i64, ptr %13, align 8, !tbaa !14
  %15 = load i64, ptr getelementptr inbounds nuw (i8, ptr @_ZN7Imf_3_4L10TILEDIMAGEB5cxx11E, i64 8), align 8, !tbaa !14
  %16 = icmp eq i64 %14, %15
  br i1 %16, label %17, label %_ZSteqIcEN9__gnu_cxx11__enable_ifIXsr9__is_charIT_EE7__valueEbE6__typeERKNSt7__cxx1112basic_stringIS2_St11char_traitsIS2_ESaIS2_EEESC_.exit.thread12

17:                                               ; preds = %9
  %18 = icmp eq i64 %14, 0
  br i1 %18, label %_ZSteqIcEN9__gnu_cxx11__enable_ifIXsr9__is_charIT_EE7__valueEbE6__typeERKNSt7__cxx1112basic_stringIS2_St11char_traitsIS2_ESaIS2_EEESC_.exit.thread, label %_ZSteqIcEN9__gnu_cxx11__enable_ifIXsr9__is_charIT_EE7__valueEbE6__typeERKNSt7__cxx1112basic_stringIS2_St11char_traitsIS2_ESaIS2_EEESC_.exit

_ZSteqIcEN9__gnu_cxx11__enable_ifIXsr9__is_charIT_EE7__valueEbE6__typeERKNSt7__cxx1112basic_stringIS2_St11char_traitsIS2_ESaIS2_EEESC_.exit: ; preds = %17
  %19 = load ptr, ptr @_ZN7Imf_3_4L10TILEDIMAGEB5cxx11E, align 8, !tbaa !11
  %20 = load ptr, ptr %12, align 8, !tbaa !11
  %bcmp.i = tail call i32 @bcmp(ptr %20, ptr %19, i64 %14)
  %21 = icmp eq i32 %bcmp.i, 0
  br i1 %21, label %_ZSteqIcEN9__gnu_cxx11__enable_ifIXsr9__is_charIT_EE7__valueEbE6__typeERKNSt7__cxx1112basic_stringIS2_St11char_traitsIS2_ESaIS2_EEESC_.exit.thread, label %_ZSteqIcEN9__gnu_cxx11__enable_ifIXsr9__is_charIT_EE7__valueEbE6__typeERKNSt7__cxx1112basic_stringIS2_St11char_traitsIS2_ESaIS2_EEESC_.exit.thread12

_ZSteqIcEN9__gnu_cxx11__enable_ifIXsr9__is_charIT_EE7__valueEbE6__typeERKNSt7__cxx1112basic_stringIS2_St11char_traitsIS2_ESaIS2_EEESC_.exit.thread12: ; preds = %9, %_ZSteqIcEN9__gnu_cxx11__enable_ifIXsr9__is_charIT_EE7__valueEbE6__typeERKNSt7__cxx1112basic_stringIS2_St11char_traitsIS2_ESaIS2_EEESC_.exit
  br label %_ZSteqIcEN9__gnu_cxx11__enable_ifIXsr9__is_charIT_EE7__valueEbE6__typeERKNSt7__cxx1112basic_stringIS2_St11char_traitsIS2_ESaIS2_EEESC_.exit.thread

_ZSteqIcEN9__gnu_cxx11__enable_ifIXsr9__is_charIT_EE7__valueEbE6__typeERKNSt7__cxx1112basic_stringIS2_St11char_traitsIS2_ESaIS2_EEESC_.exit.thread: ; preds = %_ZSteqIcEN9__gnu_cxx11__enable_ifIXsr9__is_charIT_EE7__valueEbE6__typeERKNSt7__cxx1112basic_stringIS2_St11char_traitsIS2_ESaIS2_EEESC_.exit, %17, %_ZSteqIcEN9__gnu_cxx11__enable_ifIXsr9__is_charIT_EE7__valueEbE6__typeERKNSt7__cxx1112basic_stringIS2_St11char_traitsIS2_ESaIS2_EEESC_.exit.thread12
  %.sink23 = phi i1 [ false, %_ZSteqIcEN9__gnu_cxx11__enable_ifIXsr9__is_charIT_EE7__valueEbE6__typeERKNSt7__cxx1112basic_stringIS2_St11char_traitsIS2_ESaIS2_EEESC_.exit.thread12 ], [ true, %17 ], [ true, %_ZSteqIcEN9__gnu_cxx11__enable_ifIXsr9__is_charIT_EE7__valueEbE6__typeERKNSt7__cxx1112basic_stringIS2_St11char_traitsIS2_ESaIS2_EEESC_.exit ]
  %22 = load ptr, ptr %1, align 8, !tbaa !24
  %23 = getelementptr inbounds nuw %"class.Imf_3_4::Header", ptr %22, i64 %.013
  %24 = load ptr, ptr %6, align 8, !tbaa !92
  %25 = tail call noundef i64 @_ZNK7Imf_3_46Header7writeToERNS_7OStreamEb(ptr noundef nonnull align 8 dereferenceable(49) %23, ptr noundef nonnull align 8 dereferenceable(40) %24, i1 noundef zeroext %.sink23)
  %26 = load ptr, ptr %7, align 8, !tbaa !33
  %27 = getelementptr inbounds nuw ptr, ptr %26, i64 %.013
  %28 = load ptr, ptr %27, align 8, !tbaa !37
  %29 = getelementptr inbounds nuw i8, ptr %28, i64 64
  store i64 %25, ptr %29, align 8, !tbaa !96
  %30 = add nuw i64 %.013, 1
  %31 = load ptr, ptr %3, align 8, !tbaa !21
  %32 = load ptr, ptr %1, align 8, !tbaa !24
  %33 = ptrtoint ptr %31 to i64
  %34 = ptrtoint ptr %32 to i64
  %35 = sub i64 %33, %34
  %36 = sdiv exact i64 %35, 56
  %37 = icmp ult i64 %30, %36
  br i1 %37, label %9, label %._crit_edge, !llvm.loop !105

._crit_edge.thread:                               ; preds = %2, %._crit_edge
  %38 = getelementptr inbounds nuw i8, ptr %0, i64 40
  %39 = load ptr, ptr %38, align 8, !tbaa !92
  %40 = load ptr, ptr %39, align 8, !tbaa !70
  %41 = getelementptr inbounds nuw i8, ptr %40, i64 16
  %42 = load ptr, ptr %41, align 8
  tail call void %42(ptr noundef nonnull align 8 dereferenceable(40) %39, ptr noundef nonnull @.str.25, i32 noundef 1)
  br label %43

43:                                               ; preds = %._crit_edge.thread, %._crit_edge
  ret void
}